; Function Attrs: mustprogress uwtable
define noundef i32 @_ZNK6casadi5Rank110sp_forwardEPPKyPPyPxS4_(ptr noundef nonnull align 8 dereferenceable(64) %0, ptr noundef readonly captures(none) %1, ptr noundef readonly captures(none) %2, ptr readnone captures(none) %3, ptr readnone captures(none) %4) unnamed_addr #3 align 2 {
  %6 = load ptr, ptr %1, align 8, !tbaa !70
  %7 = load ptr, ptr %2, align 8, !tbaa !70
  %.not = icmp eq ptr %6, %7
  br i1 %.not, label %_ZSt4copyIPKyPyET0_T_S4_S3_.exit, label %8

8:                                                ; preds = %5
  %9 = getelementptr inbounds nuw i8, ptr %0, i64 32
  %10 = getelementptr inbounds nuw i8, ptr %0, i64 40
  %11 = load ptr, ptr %10, align 8, !tbaa !15
  %12 = load ptr, ptr %9, align 8, !tbaa !11
  %.not.i.i.i.not = icmp eq ptr %11, %12
  br i1 %.not.i.i.i.not, label %13, label %_ZNK6casadi6MXNode3depEx.exit

13:                                               ; preds = %8
  tail call void (ptr, ...) @_ZSt24__throw_out_of_range_fmtPKcz(ptr noundef nonnull @.str.4, i64 noundef 0, i64 noundef 0) #23
  unreachable

_ZNK6casadi6MXNode3depEx.exit:                    ; preds = %8
  %14 = tail call noundef nonnull align 8 dereferenceable(8) ptr @_ZNK6casadi2MX8sparsityEv(ptr noundef nonnull align 8 dereferenceable(8) %12)
  %15 = tail call noundef i64 @_ZNK6casadi8Sparsity3nnzEv(ptr noundef nonnull align 8 dereferenceable(8) %14)
  %.not.i.i.i.i.i = icmp eq i64 %15, 0
  br i1 %.not.i.i.i.i.i, label %_ZSt4copyIPKyPyET0_T_S4_S3_.exit, label %16

16:                                               ; preds = %_ZNK6casadi6MXNode3depEx.exit
  %.idx = shl nsw i64 %15, 3
  %17 = load ptr, ptr %2, align 8, !tbaa !70
  tail call void @llvm.memmove.p0.p0.i64(ptr align 8 %17, ptr align 8 %6, i64 %.idx, i1 false)
  br label %_ZSt4copyIPKyPyET0_T_S4_S3_.exit

_ZSt4copyIPKyPyET0_T_S4_S3_.exit:                 ; preds = %16, %_ZNK6casadi6MXNode3depEx.exit, %5
  %18 = getelementptr inbounds nuw i8, ptr %0, i64 56
  %19 = tail call noundef i64 @_ZNK6casadi8Sparsity5size2Ev(ptr noundef nonnull align 8 dereferenceable(8) %18)
  %20 = tail call noundef ptr @_ZNK6casadi8Sparsity6colindEv(ptr noundef nonnull align 8 dereferenceable(8) %18)
  %21 = tail call noundef ptr @_ZNK6casadi8Sparsity3rowEv(ptr noundef nonnull align 8 dereferenceable(8) %18)
  %22 = icmp sgt i64 %19, 0
  br i1 %22, label %.lr.ph28, label %._crit_edge

.lr.ph28:                                         ; preds = %_ZSt4copyIPKyPyET0_T_S4_S3_.exit
  %23 = getelementptr inbounds nuw i8, ptr %1, i64 8
  %24 = getelementptr inbounds nuw i8, ptr %1, i64 16
  %25 = getelementptr inbounds nuw i8, ptr %1, i64 24
  %.pre = load i64, ptr %20, align 8, !tbaa !62
  br label %27

.loopexit:                                        ; preds = %38, %27
  %26 = phi i64 [ %31, %27 ], [ %51, %38 ]
  %exitcond.not = icmp eq i64 %29, %19
  br i1 %exitcond.not, label %._crit_edge, label %27, !llvm.loop !72

27:                                               ; preds = %.lr.ph28, %.loopexit
  %28 = phi i64 [ %.pre, %.lr.ph28 ], [ %26, %.loopexit ]
  %.02327 = phi i64 [ 0, %.lr.ph28 ], [ %29, %.loopexit ]
  %29 = add nuw nsw i64 %.02327, 1
  %30 = getelementptr inbounds nuw i64, ptr %20, i64 %29
  %31 = load i64, ptr %30, align 8, !tbaa !62
  %32 = icmp slt i64 %28, %31
  br i1 %32, label %.lr.ph, label %.loopexit

.lr.ph:                                           ; preds = %27
  %33 = load ptr, ptr %23, align 8, !tbaa !70
  %34 = load ptr, ptr %24, align 8, !tbaa !70
  %35 = load ptr, ptr %25, align 8, !tbaa !70
  %36 = getelementptr inbounds nuw i64, ptr %35, i64 %.02327
  %37 = load ptr, ptr %2, align 8, !tbaa !70
  br label %38

38:                                               ; preds = %.lr.ph, %38
  %.026 = phi i64 [ %28, %.lr.ph ], [ %50, %38 ]
  %39 = getelementptr inbounds i64, ptr %21, i64 %.026
  %40 = load i64, ptr %39, align 8, !tbaa !62
  %41 = load i64, ptr %33, align 8, !tbaa !62
  %42 = getelementptr inbounds i64, ptr %34, i64 %40
  %43 = load i64, ptr %42, align 8, !tbaa !62
  %44 = or i64 %43, %41
  %45 = load i64, ptr %36, align 8, !tbaa !62
  %46 = or i64 %44, %45
  %47 = getelementptr inbounds i64, ptr %37, i64 %.026
  %48 = load i64, ptr %47, align 8, !tbaa !62
  %49 = or i64 %46, %48
  store i64 %49, ptr %47, align 8, !tbaa !62
  %50 = add nsw i64 %.026, 1
  %51 = load i64, ptr %30, align 8, !tbaa !62
  %52 = icmp slt i64 %50, %51
  br i1 %52, label %38, label %.loopexit, !llvm.loop !73

._crit_edge:                                      ; preds = %.loopexit, %_ZSt4copyIPKyPyET0_T_S4_S3_.exit
  ret i32 0
}